; Function Attrs: mustprogress nounwind uwtable
define dso_local void @_ZN4llvm14getPGOFuncNameB5cxx11ENS_9StringRefENS_11GlobalValue12LinkageTypesES0_m(ptr dead_on_unwind noalias writable sret(%"class.std::__cxx11::basic_string") align 8 %0, ptr %1, i64 %2, i32 noundef %3, ptr %4, i64 %5, i64 %6) local_unnamed_addr #0 {
  %8 = alloca %"class.std::allocator", align 1
  %9 = alloca %"struct.std::__cxx11::basic_string<char>::__sv_wrapper", align 8
  %10 = alloca %"class.std::allocator", align 1
  %11 = alloca %"class.std::__cxx11::basic_string", align 8
  %12 = alloca %"class.std::__cxx11::basic_string", align 8
  %13 = load i8, ptr %1, align 1
  %14 = icmp eq i8 %13, 1
  %15 = icmp ne i64 %2, 0
  %narrow = select i1 %14, i1 %15, i1 false
  %.sroa.02.0.idx = zext i1 %narrow to i64
  %.sroa.02.0 = getelementptr inbounds nuw i8, ptr %1, i64 %.sroa.02.0.idx
  %.sroa.5.0 = sub i64 %2, %.sroa.02.0.idx
  call void @_ZNSaIcEC1Ev(ptr noundef nonnull align 1 dereferenceable(1) %10) #28
  call void @llvm.lifetime.start.p0(i64 16, ptr nonnull %9)
  %16 = call { i64, ptr } @_ZNSt7__cxx1112basic_stringIcSt11char_traitsIcESaIcEE17_S_to_string_viewESt17basic_string_viewIcS2_E(i64 %.sroa.5.0, ptr nonnull %.sroa.02.0) #28
  %17 = extractvalue { i64, ptr } %16, 0
  %18 = extractvalue { i64, ptr } %16, 1
  call void @_ZNSt7__cxx1112basic_stringIcSt11char_traitsIcESaIcEE12__sv_wrapperC1ESt17basic_string_viewIcS2_E(ptr noundef nonnull align 8 dereferenceable(16) %9, i64 %17, ptr %18) #28
  %19 = load i64, ptr %9, align 8
  %20 = getelementptr inbounds nuw i8, ptr %9, i64 8
  %21 = load ptr, ptr %20, align 8
  call void @_ZNSt7__cxx1112basic_stringIcSt11char_traitsIcESaIcEEC2ENS4_12__sv_wrapperERKS3_(ptr noundef nonnull align 8 dereferenceable(32) %0, i64 %19, ptr %21, ptr noundef nonnull align 1 dereferenceable(1) %10) #28
  call void @llvm.lifetime.end.p0(i64 16, ptr nonnull %9)
  call void @_ZNSaIcED1Ev(ptr noundef nonnull align 1 dereferenceable(1) %10) #28
  %22 = add i32 %3, -7
  %spec.select.i = icmp ult i32 %22, 2
  br i1 %spec.select.i, label %23, label %34

23:                                               ; preds = %7
  %24 = icmp eq i64 %5, 0
  br i1 %24, label %25, label %28

25:                                               ; preds = %23
  %26 = call noundef nonnull align 8 dereferenceable(32) ptr @_ZNSt7__cxx1112basic_stringIcSt11char_traitsIcESaIcEE6insertEmPKc(ptr noundef nonnull align 8 dereferenceable(32) %0, i64 noundef 0, ptr noundef nonnull @.str.15) #28
  %27 = call noundef nonnull align 8 dereferenceable(32) ptr @_ZNSt7__cxx1112basic_stringIcSt11char_traitsIcESaIcEEaSERKS4_(ptr noundef nonnull align 8 dereferenceable(32) %0, ptr noundef nonnull align 8 dereferenceable(32) %26) #28
  br label %34

28:                                               ; preds = %23
  call void @llvm.lifetime.start.p0(i64 1, ptr nonnull %8)
  %.not.i = icmp eq ptr %4, null
  br i1 %.not.i, label %29, label %30

29:                                               ; preds = %28
  call void @_ZNSt7__cxx1112basic_stringIcSt11char_traitsIcESaIcEEC1Ev(ptr noundef nonnull align 8 dereferenceable(32) %12) #28
  br label %_ZNK4llvm9StringRef3strB5cxx11Ev.exit

30:                                               ; preds = %28
  call void @_ZNSaIcEC1Ev(ptr noundef nonnull align 1 dereferenceable(1) %8) #28, !noalias !5
  call void @_ZNSt7__cxx1112basic_stringIcSt11char_traitsIcESaIcEEC1EPKcmRKS3_(ptr noundef nonnull align 8 dereferenceable(32) %12, ptr noundef nonnull %4, i64 noundef %5, ptr noundef nonnull align 1 dereferenceable(1) %8) #28
  call void @_ZNSaIcED1Ev(ptr noundef nonnull align 1 dereferenceable(1) %8) #28
  br label %_ZNK4llvm9StringRef3strB5cxx11Ev.exit

_ZNK4llvm9StringRef3strB5cxx11Ev.exit:            ; preds = %29, %30
  call void @llvm.lifetime.end.p0(i64 1, ptr nonnull %8)
  %31 = call noundef nonnull align 8 dereferenceable(32) ptr @_ZNSt7__cxx1112basic_stringIcSt11char_traitsIcESaIcEE6appendEPKc(ptr noundef nonnull align 8 dereferenceable(32) %12, ptr noundef nonnull @.str.16) #28, !noalias !8
  call void @_ZNSt7__cxx1112basic_stringIcSt11char_traitsIcESaIcEEC1EOS4_(ptr noundef nonnull align 8 dereferenceable(32) %11, ptr noundef nonnull align 8 dereferenceable(32) %31) #28
  %32 = call noundef nonnull align 8 dereferenceable(32) ptr @_ZNSt7__cxx1112basic_stringIcSt11char_traitsIcESaIcEE6insertEmRKS4_(ptr noundef nonnull align 8 dereferenceable(32) %0, i64 noundef 0, ptr noundef nonnull align 8 dereferenceable(32) %11) #28
  %33 = call noundef nonnull align 8 dereferenceable(32) ptr @_ZNSt7__cxx1112basic_stringIcSt11char_traitsIcESaIcEEaSERKS4_(ptr noundef nonnull align 8 dereferenceable(32) %0, ptr noundef nonnull align 8 dereferenceable(32) %32) #28
  call void @_ZNSt7__cxx1112basic_stringIcSt11char_traitsIcESaIcEED1Ev(ptr noundef nonnull align 8 dereferenceable(32) %11) #28
  call void @_ZNSt7__cxx1112basic_stringIcSt11char_traitsIcESaIcEED1Ev(ptr noundef nonnull align 8 dereferenceable(32) %12) #28
  br label %34

34:                                               ; preds = %7, %_ZNK4llvm9StringRef3strB5cxx11Ev.exit, %25
  ret void
}